; Function Attrs: nounwind uwtable
define dso_local range(i32 0, 2) i32 @ASN1_TIME_to_tm(ptr noundef readonly captures(address_is_null) %0, ptr noundef %1) local_unnamed_addr #1 {
  %3 = alloca i64, align 8
  %4 = icmp eq ptr %0, null
  br i1 %4, label %5, label %8

5:                                                ; preds = %2
  call void @llvm.lifetime.start.p0(i64 8, ptr nonnull %3) #8
  %6 = call i64 @time(ptr noundef nonnull %3) #8
  call void @llvm.memset.p0.i64(ptr noundef nonnull align 8 dereferenceable(56) %1, i8 0, i64 56, i1 false)
  %7 = call ptr @OPENSSL_gmtime(ptr noundef nonnull %3, ptr noundef nonnull %1) #8
  %.not = icmp ne ptr %7, null
  %. = zext i1 %.not to i32
  call void @llvm.lifetime.end.p0(i64 8, ptr nonnull %3) #8
  br label %10

8:                                                ; preds = %2
  %9 = tail call i32 @ossl_asn1_time_to_tm(ptr noundef %1, ptr noundef nonnull %0)
  br label %10

10:                                               ; preds = %8, %5
  %.1 = phi i32 [ %., %5 ], [ %9, %8 ]
  ret i32 %.1
}